target datalayout = "e-m:e-p270:32:32-p271:32:32-p272:64:64-i64:64-i128:128-f80:128-n8:16:32:64-S128"
target triple = "x86_64-pc-linux-gnu"

%struct.exec_wait_info = type { i32, i32, i32, i32 }

@.str.16 = private unnamed_addr constant [6 x i8] c"mgr.c\00", align 1
@.str.137 = private unnamed_addr constant [33 x i8] c"_exec_wait_info_create: pipe: %m\00", align 1
@__func__._exec_wait_info_create = private unnamed_addr constant [23 x i8] c"_exec_wait_info_create\00", align 1

; Function Attrs: nounwind uwtable
define internal void @_exec_wait_info_destroy(ptr noundef %0) #0 {
  %2 = alloca ptr, align 8
  store ptr %0, ptr %2, align 8
  %3 = load ptr, ptr %2, align 8
  %4 = icmp eq ptr %3, null
  br i1 %4, label %5, label %6

5:                                                ; preds = %1
  br label %35

6:                                                ; preds = %1
  %7 = load ptr, ptr %2, align 8
  %8 = getelementptr inbounds nuw %struct.exec_wait_info, ptr %7, i32 0, i32 2
  %9 = load i32, ptr %8, align 4
  %10 = icmp sge i32 %9, 0
  br i1 %10, label %11, label %18

11:                                               ; preds = %6
  %12 = load ptr, ptr %2, align 8
  %13 = getelementptr inbounds nuw %struct.exec_wait_info, ptr %12, i32 0, i32 2
  %14 = load i32, ptr %13, align 4
  %15 = call i32 @close(i32 noundef %14)
  %16 = load ptr, ptr %2, align 8
  %17 = getelementptr inbounds nuw %struct.exec_wait_info, ptr %16, i32 0, i32 2
  store i32 -1, ptr %17, align 4
  br label %18

18:                                               ; preds = %11, %6
  %19 = load ptr, ptr %2, align 8
  %20 = getelementptr inbounds nuw %struct.exec_wait_info, ptr %19, i32 0, i32 3
  %21 = load i32, ptr %20, align 4
  %22 = icmp sge i32 %21, 0
  br i1 %22, label %23, label %30

23:                                               ; preds = %18
  %24 = load ptr, ptr %2, align 8
  %25 = getelementptr inbounds nuw %struct.exec_wait_info, ptr %24, i32 0, i32 3
  %26 = load i32, ptr %25, align 4
  %27 = call i32 @close(i32 noundef %26)
  %28 = load ptr, ptr %2, align 8
  %29 = getelementptr inbounds nuw %struct.exec_wait_info, ptr %28, i32 0, i32 3
  store i32 -1, ptr %29, align 4
  br label %30

30:                                               ; preds = %23, %18
  %31 = load ptr, ptr %2, align 8
  %32 = getelementptr inbounds nuw %struct.exec_wait_info, ptr %31, i32 0, i32 0
  store i32 -1, ptr %32, align 4
  %33 = load ptr, ptr %2, align 8
  %34 = getelementptr inbounds nuw %struct.exec_wait_info, ptr %33, i32 0, i32 1
  store i32 -1, ptr %34, align 4
  call void @slurm_xfree(ptr noundef %2)
  br label %35

35:                                               ; preds = %30, %5
  ret void
}

; Function Attrs: nounwind uwtable
define internal ptr @_exec_wait_info_create(i32 noundef %0) #0 {
  %2 = alloca ptr, align 8
  %3 = alloca i32, align 4
  %4 = alloca [2 x i32], align 4
  %5 = alloca ptr, align 8
  %6 = alloca i32, align 4
  store i32 %0, ptr %3, align 4
  call void @llvm.lifetime.start.p0(i64 8, ptr %4) #12
  call void @llvm.lifetime.start.p0(i64 8, ptr %5) #12
  %7 = getelementptr inbounds [2 x i32], ptr %4, i64 0, i64 0
  %8 = call i32 @pipe2(ptr noundef %7, i32 noundef 524288) #12
  %9 = icmp slt i32 %8, 0
  br i1 %9, label %10, label %12

10:                                               ; preds = %1
  %11 = call i32 (ptr, ...) @error(ptr noundef @.str.137)
  store ptr null, ptr %2, align 8
  store i32 1, ptr %6, align 4
  br label %28

12:                                               ; preds = %1
  %13 = call ptr @slurm_xcalloc(i64 noundef 1, i64 noundef 16, i1 noundef zeroext true, i1 noundef zeroext false, ptr noundef @.str.16, i32 noundef 1983, ptr noundef @__func__._exec_wait_info_create)
  store ptr %13, ptr %5, align 8
  %14 = getelementptr inbounds [2 x i32], ptr %4, i64 0, i64 0
  %15 = load i32, ptr %14, align 4
  %16 = load ptr, ptr %5, align 8
  %17 = getelementptr inbounds nuw %struct.exec_wait_info, ptr %16, i32 0, i32 3
  store i32 %15, ptr %17, align 4
  %18 = getelementptr inbounds [2 x i32], ptr %4, i64 0, i64 1
  %19 = load i32, ptr %18, align 4
  %20 = load ptr, ptr %5, align 8
  %21 = getelementptr inbounds nuw %struct.exec_wait_info, ptr %20, i32 0, i32 2
  store i32 %19, ptr %21, align 4
  %22 = load i32, ptr %3, align 4
  %23 = load ptr, ptr %5, align 8
  %24 = getelementptr inbounds nuw %struct.exec_wait_info, ptr %23, i32 0, i32 0
  store i32 %22, ptr %24, align 4
  %25 = load ptr, ptr %5, align 8
  %26 = getelementptr inbounds nuw %struct.exec_wait_info, ptr %25, i32 0, i32 1
  store i32 -1, ptr %26, align 4
  %27 = load ptr, ptr %5, align 8
  store ptr %27, ptr %2, align 8
  store i32 1, ptr %6, align 4
  br label %28

28:                                               ; preds = %12, %10
  call void @llvm.lifetime.end.p0(i64 8, ptr %5) #12
  call void @llvm.lifetime.end.p0(i64 8, ptr %4) #12
  %29 = load ptr, ptr %2, align 8
  ret ptr %29
}

; Function Attrs: nounwind uwtable
define internal ptr @_fork_child_with_wait_info(i32 noundef %0) #0 {
  %2 = alloca ptr, align 8
  %3 = alloca i32, align 4
  %4 = alloca ptr, align 8
  %5 = alloca i32, align 4
  store i32 %0, ptr %3, align 4
  call void @llvm.lifetime.start.p0(i64 8, ptr %4) #12
  %6 = load i32, ptr %3, align 4
  %7 = call ptr @_exec_wait_info_create(i32 noundef %6)
  store ptr %7, ptr %4, align 8
  %8 = icmp ne ptr %7, null
  br i1 %8, label %10, label %9

9:                                                ; preds = %1
  store ptr null, ptr %2, align 8
  store i32 1, ptr %5, align 4
  br label %38

10:                                               ; preds = %1
  %11 = call i32 @fork() #12
  %12 = load ptr, ptr %4, align 8
  %13 = getelementptr inbounds nuw %struct.exec_wait_info, ptr %12, i32 0, i32 1
  store i32 %11, ptr %13, align 4
  %14 = icmp slt i32 %11, 0
  br i1 %14, label %15, label %17

15:                                               ; preds = %10
  %16 = load ptr, ptr %4, align 8
  call void @_exec_wait_info_destroy(ptr noundef %16)
  store ptr null, ptr %2, align 8
  store i32 1, ptr %5, align 4
  br label %38

17:                                               ; preds = %10
  %18 = load ptr, ptr %4, align 8
  %19 = getelementptr inbounds nuw %struct.exec_wait_info, ptr %18, i32 0, i32 1
  %20 = load i32, ptr %19, align 4
  %21 = icmp eq i32 %20, 0
  br i1 %21, label %22, label %29

22:                                               ; preds = %17
  %23 = load ptr, ptr %4, align 8
  %24 = getelementptr inbounds nuw %struct.exec_wait_info, ptr %23, i32 0, i32 2
  %25 = load i32, ptr %24, align 4
  %26 = call i32 @close(i32 noundef %25)
  %27 = load ptr, ptr %4, align 8
  %28 = getelementptr inbounds nuw %struct.exec_wait_info, ptr %27, i32 0, i32 2
  store i32 -1, ptr %28, align 4
  br label %36

29:                                               ; preds = %17
  %30 = load ptr, ptr %4, align 8
  %31 = getelementptr inbounds nuw %struct.exec_wait_info, ptr %30, i32 0, i32 3
  %32 = load i32, ptr %31, align 4
  %33 = call i32 @close(i32 noundef %32)
  %34 = load ptr, ptr %4, align 8
  %35 = getelementptr inbounds nuw %struct.exec_wait_info, ptr %34, i32 0, i32 3
  store i32 -1, ptr %35, align 4
  br label %36

36:                                               ; preds = %29, %22
  %37 = load ptr, ptr %4, align 8
  store ptr %37, ptr %2, align 8
  store i32 1, ptr %5, align 4
  br label %38

38:                                               ; preds = %36, %15, %9
  call void @llvm.lifetime.end.p0(i64 8, ptr %4) #12
  %39 = load ptr, ptr %2, align 8
  ret ptr %39
}