; Function Attrs: nounwind uwtable
define internal fastcc noundef ptr @_fork_child_with_wait_info(i32 noundef %0) unnamed_addr #0 {
  %2 = alloca ptr, align 8
  %3 = alloca [2 x i32], align 4
  call void @llvm.lifetime.start.p0(i64 8, ptr nonnull %3) #17
  %4 = call i32 @pipe2(ptr noundef nonnull %3, i32 noundef 524288) #17
  %5 = icmp slt i32 %4, 0
  br i1 %5, label %_exec_wait_info_create.exit.thread, label %7

_exec_wait_info_create.exit.thread:               ; preds = %1
  %6 = call i32 (ptr, ...) @error(ptr noundef nonnull @.str.137) #17
  call void @llvm.lifetime.end.p0(i64 8, ptr nonnull %3) #17
  br label %35

7:                                                ; preds = %1
  %8 = call ptr @slurm_xcalloc(i64 noundef 1, i64 noundef 16, i1 noundef zeroext true, i1 noundef zeroext false, ptr noundef nonnull @.str.16, i32 noundef 1983, ptr noundef nonnull @__func__._exec_wait_info_create) #17
  %9 = load i32, ptr %3, align 4
  %10 = getelementptr inbounds nuw i8, ptr %8, i64 12
  store i32 %9, ptr %10, align 4
  %11 = getelementptr inbounds nuw i8, ptr %3, i64 4
  %12 = load i32, ptr %11, align 4
  %13 = getelementptr inbounds nuw i8, ptr %8, i64 8
  store i32 %12, ptr %13, align 4
  store i32 %0, ptr %8, align 4
  %14 = getelementptr inbounds nuw i8, ptr %8, i64 4
  store i32 -1, ptr %14, align 4
  call void @llvm.lifetime.end.p0(i64 8, ptr nonnull %3) #17
  %15 = call i32 @fork() #17
  store i32 %15, ptr %14, align 4
  %16 = icmp slt i32 %15, 0
  br i1 %16, label %17, label %27

17:                                               ; preds = %7
  call void @llvm.lifetime.start.p0(i64 8, ptr nonnull %2)
  store ptr %8, ptr %2, align 8
  %18 = load i32, ptr %13, align 4
  %19 = icmp sgt i32 %18, -1
  br i1 %19, label %20, label %22

20:                                               ; preds = %17
  %21 = call i32 @close(i32 noundef %18) #17
  store i32 -1, ptr %13, align 4
  br label %22

22:                                               ; preds = %20, %17
  %23 = load i32, ptr %10, align 4
  %24 = icmp sgt i32 %23, -1
  br i1 %24, label %25, label %_exec_wait_info_destroy.exit

25:                                               ; preds = %22
  %26 = call i32 @close(i32 noundef %23) #17
  store i32 -1, ptr %10, align 4
  br label %_exec_wait_info_destroy.exit

_exec_wait_info_destroy.exit:                     ; preds = %22, %25
  store i32 -1, ptr %8, align 4
  store i32 -1, ptr %14, align 4
  call void @slurm_xfree(ptr noundef nonnull %2) #17
  call void @llvm.lifetime.end.p0(i64 8, ptr nonnull %2)
  br label %35

27:                                               ; preds = %7
  %28 = icmp eq i32 %15, 0
  br i1 %28, label %29, label %32

29:                                               ; preds = %27
  %30 = load i32, ptr %13, align 4
  %31 = call i32 @close(i32 noundef %30) #17
  store i32 -1, ptr %13, align 4
  br label %35

32:                                               ; preds = %27
  %33 = load i32, ptr %10, align 4
  %34 = call i32 @close(i32 noundef %33) #17
  store i32 -1, ptr %10, align 4
  br label %35

35:                                               ; preds = %_exec_wait_info_create.exit.thread, %29, %32, %_exec_wait_info_destroy.exit
  %.0 = phi ptr [ null, %_exec_wait_info_destroy.exit ], [ %8, %32 ], [ %8, %29 ], [ null, %_exec_wait_info_create.exit.thread ]
  ret ptr %.0
}